(dp0
S'Canada'
p1
F1786655.0
sS'Fiji'
p2
F4030.0
sS'Turkmenistan'
p3
F47932.0
sS'Lithuania'
p4
F48172.0
sS'Cambodia'
p5
F16709.0
sS'Faeroe_Islands'
p6
F2613.0
sS'Ethiopia'
p7
F54798.0
sS'Swaziland'
p8
F3400.0
sS'Saudi_Arabia'
p9
F746249.0
sS'Argentina'
p10
F540197.0
sS'Bolivia'
p11
F34176.0
sS'Cameroon'
p12
F32549.0
sS'Ghana'
p13
F38648.0
sS'Saint_Lucia'
p14
F1365.0
sS'Saint_Kitts_and_Nevis'
p15
F833.0
sS'Antigua_and_Barbuda'
p16
F1269.0
sS'Czech_Republic'
p17
F205523.0
sS'Slovenia'
p18
F49416.0
sS'Guatemala'
p19
F58728.0
sS'Guinea'
p20
F6624.0
sS'Jordan'
p21
F35827.0
sS'Spain'
p22
F1404307.0
sS'Liberia'
p23
F2027.0
sS'Netherlands'
p24
F869508.0
sS'Jamaica'
p25
F14362.0
sS'Oman'
p26
F81797.0
sS'Tanzania'
p27
F49184.0
sS'Cabo_Verde'
p28
F1871.0
sS'Seychelles'
p29
F1406.0
sS'Gabon'
p30
F17228.0
sS'United_Kingdom'
p31
F2941886.0
sS'Yemen'
p32
F35955.0
sS'Pakistan'
p33
F246876.0
sS'Albania'
p34
F13370.0
sS'Samoa'
p35
F801.0
sS'Kosovo'
p36
F7274.0
sS'India'
p37
F2066902.0
sS'Azerbaijan'
p38
F75198.0
sS'Madagascar'
p39
F10593.0
sS'Lesotho'
p40
F2088.0
sS'Kenya'
p41
F60937.0
sS'Macao'
p42
F55502.0
sS'Turkey'
p43
F799535.0
sS'Afghanistan'
p44
F20842.0
sS'Russian_Federation'
p45
F1860598.0
sS'Bangladesh'
p46
F173819.0
sS'Andorra'
p47
F3249.0
sS'Eritrea'
p48
F3858.0
sS'Saint_Vincent_and_the_Grenadines'
p49
F729.0
sS'Mongolia'
p50
F12016.0
sS'France'
p51
F2829192.0
sS'Rwanda'
p52
F7890.0
sS'Slovakia'
p53
F99790.0
sS'Peru'
p54
F202903.0
sS'Vanuatu'
p55
F802.0
sS'Norway'
p56
F500103.0
sS'Malawi'
p57
F4258.0
sS'Benin'
p58
F8747.0
sS'Solomon_Islands'
p59
F1158.0
sS'Singapore'
p60
F307872.0
sS'South_Africa'
p61
F349817.0
sS'Montenegro'
p62
F4583.0
sS'Congo_Dem_Rep'
p63
F32962.0
sS'Togo'
p64
F4518.0
sS'Brunei_Darussalam'
p65
F17257.0
sS'China'
p66
F10360105.0
sS'Armenia'
p67
F10882.0
sS'South_Sudan'
p68
F13070.0
sS'Burkina_Faso'
p69
F12543.0
sS'Ukraine'
p70
F131805.0
sS'Bahrain'
p71
F33869.0
sS'Tonga'
p72
F434.0
sS'Finland'
p73
F270674.0
sS'Libya'
p74
F41119.0
sS'Indonesia'
p75
F888538.0
sS'Mauritius'
p76
F12616.0
sS'Tajikistan'
p77
F9242.0
sS'Sweden'
p78
F570591.0
sS'Vietnam'
p79
F186205.0
sS'Equatorial_Guinea'
p80
F14308.0
sS'Mali'
p81
F12074.0
sS'Bulgaria'
p82
F55735.0
sS'Central_African_Republic'
p83
F1783.0
sS'Romania'
p84
F199044.0
sS'Angola'
p85
F131401.0
sS'Portugal'
p86
F229584.0
sS'Nicaragua'
p87
F11806.0
sS'Liechtenstein'
p88
F5488.0
sS'Puerto_Rico'
p89
F103135.0
sS'Malaysia'
p90
F326933.0
sS'Austria'
p91
F436344.0
sS'Mozambique'
p92
F16386.0
sS'El_Salvador'
p93
F25220.0
sS'Uganda'
p94
F26312.0
sS'Hungary'
p95
F137104.0
sS'Niger'
p96
F8169.0
sS'Brazil'
p97
F2346118.0
sS'Dominican_Republic'
p98
F63969.0
sS'Kuwait'
p99
F175827.0
sS'Panama'
p100
F46213.0
sS'Guyana'
p101
F3228.0
sS'Luxembourg'
p102
F60131.0
sS'Bahamas'
p103
F8511.0
sS'Ireland'
p104
F245921.0
sS'Palau'
p105
F251.0
sS'Nigeria'
p106
F568508.0
sS'Ecuador'
p107
F100543.0
sS'Australia'
p108
F1453770.0
sS'Iran'
p109
F415339.0
sS'Bhutan'
p110
F1821.0
sS'Algeria'
p111
F214063.0
sS'Tuvalu'
p112
F38.0
sS'United_Arab_Emirates'
p113
F401647.0
sS'Chile'
p114
F258062.0
sS'Belgium'
p115
F533383.0
sS'Thailand'
p116
F373804.0
sS'Haiti'
p117
F8713.0
sS'Iraq'
p118
F220506.0
sS'Georgia'
p119
F16530.0
sS'Denmark'
p120
F341952.0
sS'Poland'
p121
F548003.0
sS'Moldova'
p122
F7944.0
sS'Morocco'
p123
F107005.0
sS'Croatia'
p124
F57223.0
sS'Micronesia'
p125
F316.0
sS'Guinea-Bissau'
p126
F1022.0
sS'Kiribati'
p127
F167.0
sS'Switzerland'
p128
F685434.0
sS'Grenada'
p129
F882.0
sS'Marshall_Islands'
p130
F191.0
sS"Cote_d'Ivoire"
p131
F34254.0
sS'Belize'
p132
F1624.0
sS'Sierra_Leone'
p133
F4892.0
sS'Chad'
p134
F13922.0
sS'Estonia'
p135
F25905.0
sS'Uruguay'
p136
F57471.0
sS'Lebanon'
p137
F45731.0
sS'Uzbekistan'
p138
F62644.0
sS'Tunisia'
p139
F46995.0
sS'Djibouti'
p140
F1582.0
sS'Bermuda'
p141
F5574.0
sS'Timor-Leste'
p142
F1552.0
sS'Dominica'
p143
F538.0
sS'Colombia'
p144
F377740.0
sS'Burundi'
p145
F3094.0
sS'Sri_Lanka'
p146
F74941.0
sS'Cyprus'
p147
F23226.0
sS'Barbados'
p148
F4348.0
sS'Qatar'
p149
F211817.0
sS'Italy'
p150
F2144338.0
sS'Papua_New_Guinea'
p151
F15413.0
sS'USA'
p152
F17419000.0
sS'Sudan'
p153
F73815.0
sS'Nepal'
p154
F19636.0
sS'Bosnia_and_Herzegovina'
p155
F18344.0
sS'Malta'
p156
F9643.0
sS'Maldives'
p157
F3032.0
sS'Suriname'
p158
F5299.0
sS'Venezuela'
p159
F509964.0
sS'South_Korea'
p160
F1410383.0
sS'Sao_Tome_and_Principe'
p161
F335.0
sS'Israel'
p162
F304226.0
sS'Hong_Kong'
p163
F290896.0
sS'Iceland'
p164
F17071.0
sS'Zambia'
p165
F27066.0
sS'Senegal'
p166
F15579.0
sS'Trinidad_and_Tobago'
p167
F24434.0
sS'Zimbabwe'
p168
F13663.0
sS'Germany'
p169
F3852556.0
sS'Gambia'
p170
F807.0
sS'Kazakhstan'
p171
F212248.0
sS'Philippines'
p172
F284582.0
sS'Mauritania'
p173
F5061.0
sS'Kyrgyzstan'
p174
F7404.0
sS'New_Zealand'
p175
F188385.0
sS'Macedonia'
p176
F11324.0
sS'Paraguay'
p177
F30985.0
sS'West_Bank_and_Gaza'
p178
F12738.0
sS'Latvia'
p179
F31921.0
sS'Japan'
p180
F4601461.0
sS'Belarus'
p181
F76139.0
sS'Honduras'
p182
F19385.0
sS'Myanmar'
p183
F64330.0
sS'Mexico'
p184
F1282720.0
sS'Egypt'
p185
F286538.0
sS'Cuba'
p186
F77150.0
sS'Serbia'
p187
F43866.0
sS'Comoros'
p188
F648.0
sS'Lao_PDR'
p189
F11772.0
sS'Congo'
p190
F14135.0
sS'Greece'
p191
F237592.0
sS'Namibia'
p192
F13430.0
sS'Costa_Rica'
p193
F49553.0
sS'Botswana'
p194
F15813.0
s.