(dp0
S'Canada'
p1
F81.76
sS'New_Caledonia'
p2
F77.5
sS'Turkmenistan'
p3
F69.78
sS'Lithuania'
p4
F74.69
sS'Cambodia'
p5
F64.14
sS'Ethiopia'
p6
F61.48
sS'Aruba'
p7
F76.56
sS'Swaziland'
p8
F51.05
sS'Saudi_Arabia'
p9
F75.05
sS'Belize'
p10
F68.59
sS'Argentina'
p11
F77.69
sS'Bolivia'
p12
F68.86
sS'Cameroon'
p13
F57.93
sS'Bahrain'
p14
F78.73
sS'Rwanda'
p15
F59.67
sS'Saint_Kitts_and_Nevis'
p16
F75.52
sS'Antigua_and_Barbuda'
p17
F76.33
sS'Laos'
p18
F63.88
sS'Czech_Republic'
p19
F78.48
sS'Brunei_Darussalam'
p20
F76.97
sS'Slovenia'
p21
F78.01
sS'Guatemala'
p22
F72.02
sS'Guinea'
p23
F60.08
sS'Jordan'
p24
F74.35
sS'West_Bank'
p25
F75.91
sS'Spain'
p26
F81.57
sS'Western_Sahara'
p27
F62.64
sS'Liberia'
p28
F58.6
sS'Netherlands'
p29
F81.23
sS'Pakistan'
p30
F67.39
sS'Oman'
p31
F75.21
sS'Tanzania'
p32
F61.71
sS'Cabo_Verde'
p33
F71.85
sS'North_Korea'
p34
F70.11
sS'Seychelles'
p35
F74.49
sS'Gabon'
p36
F52.04
sS'Monaco'
p37
F89.52
sS'Bahamas'
p38
F72.2
sS'United_Kingdom'
p39
F80.54
sS'Yemen'
p40
F65.18
sS'Jersey'
p41
F81.76
sS'Isle_of_Man'
p42
F81.09
sS'Jamaica'
p43
F73.55
sS'Albania'
p44
F78.13
sS'Samoa'
p45
F73.46
sS'Turks_and_Caicos_Islands'
p46
F79.69
sS'Guam'
p47
F78.98
sS'India'
p48
F68.13
sS'Azerbaijan'
p49
F72.2
sS'Madagascar'
p50
F65.55
sS'Faroe_Islands'
p51
F80.24
sS'Solomon_Islands'
p52
F75.12
sS'Kenya'
p53
F63.77
sS'San_Marino'
p54
F83.24
sS'Belarus'
p55
F72.48
sS'Macao'
p56
F84.51
sS'Turkey'
p57
F74.57
sS'Afghanistan'
p58
F50.87
sS'Russian_Federation'
p59
F70.47
sS'Bangladesh'
p60
F70.94
sS'Mauritania'
p61
F62.65
sS'Saint_Vincent_and_the_Grenadines'
p62
F75.09
sS'Congo_Democratic_Republic'
p63
F56.93
sS'Mongolia'
p64
F69.29
sS'France'
p65
F81.75
sS'Wallis_and_Futuna'
p66
F79.57
sS'Bermuda'
p67
F81.15
sS'Slovakia'
p68
F76.88
sS'Somalia'
p69
F51.96
sS'Peru'
p70
F73.48
sS'Vanuatu'
p71
F73.06
sS'Saint_Pierre_and_Miquelon'
p72
F80.39
sS'Nauru'
p73
F66.75
sS'Cook_Islands'
p74
F75.6
sS'Norway'
p75
F81.7
sS'Malawi'
p76
F60.66
sS'Benin'
p77
F61.47
sS'Singapore'
p78
F84.68
sS'South_Africa'
p79
F62.34
sS'Togo'
p80
F64.51
sS'Guinea-Bissau'
p81
F50.23
sS'China'
p82
F75.41
sS'Armenia'
p83
F74.37
sS'Timor-Leste'
p84
F67.72
sS'Burkina_Faso'
p85
F55.12
sS'Ukraine'
p86
F71.57
sS'Ghana'
p87
F66.18
sS'Tonga'
p88
F76.04
sS'Finland'
p89
F80.77
sS'Tristan_da_Cunha'
p90
F79.36
sS'Libya'
p91
F76.26
sS'Indonesia'
p92
F72.45
sS'Mauritius'
p93
F75.4
sS'Tajikistan'
p94
F67.39
sS'Liechtenstein'
p95
F81.77
sS'Vietnam'
p96
F73.16
sS'Equatorial_Guinea'
p97
F63.85
sS'Mali'
p98
F55.34
sS'Sweden'
p99
F81.98
sS'European_Union'
p100
F80.2
sS'Bulgaria'
p101
F74.39
sS'Central_African_Republic'
p102
F51.81
sS'Romania'
p103
F74.92
sS'Angola'
p104
F55.63
sS'Portugal'
p105
F79.16
sS'Nicaragua'
p106
F72.98
sS'Puerto_Rico'
p107
F79.25
sS'Malaysia'
p108
F74.75
sS'Austria'
p109
F81.39
sS'Mozambique'
p110
F52.94
sS'El_Salvador'
p111
F74.42
sS'Uganda'
p112
F54.93
sS'Japan'
p113
F84.74
sS'Niger'
p114
F55.13
sS'Saint_Maarten'
p115
F77.61
sS'Brazil'
p116
F73.53
sS'Dominican_Republic'
p117
F77.97
sS'Kuwait'
p118
F77.82
sS'Panama'
p119
F78.47
sS'Guyana'
p120
F68.09
sS'Luxembourg'
p121
F82.17
sS'Andorra'
p122
F82.72
sS'Gibraltar'
p123
F79.28
sS'Ireland'
p124
F80.68
sS'Palau'
p125
F72.87
sS'Nigeria'
p126
F53.02
sS'Ecuador'
p127
F76.56
sS'Australia'
p128
F82.15
sS'Iran'
p129
F71.15
sS'Bhutan'
p130
F69.51
sS'Algeria'
p131
F76.59
sS'Tuvalu'
p132
F66.16
sS'United_Arab_Emirates'
p133
F77.29
sS'Chile'
p134
F78.61
sS'Belgium'
p135
F80.88
sS'Thailand'
p136
F74.43
sS'Haiti'
p137
F63.51
sS'Iraq'
p138
F74.85
sS'Saint_Lucia'
p139
F77.6
sS'Georgia'
p140
F75.95
sS'Denmark'
p141
F79.25
sS'Poland'
p142
F77.4
sS'Namibia'
p143
F51.62
sS'Moldova'
p144
F70.42
sS'Morocco'
p145
F76.71
sS'Croatia'
p146
F76.61
sS'Micronesia'
p147
F72.62
sS'Guernsey'
p148
F82.47
sS'Kiribati'
p149
F65.81
sS'Switzerland'
p150
F82.5
sS'Grenada'
p151
F74.05
sS'Marshall_Islands'
p152
F72.84
sS"Cote_d'Ivoire"
p153
F58.34
sS'Sierra_Leone'
p154
F57.79
sS'Chad'
p155
F49.81
sS'Estonia'
p156
F76.47
sS'Uruguay'
p157
F77.0
sS'Lebanon'
p158
F77.4
sS'Northern_Mariana_Islands'
p159
F77.82
sS'Uzbekistan'
p160
F73.55
sS'Egypt'
p161
F73.7
sS'Djibouti'
p162
F62.79
sS'Greenland'
p163
F72.1
sS'Dominica'
p164
F76.79
sS'Colombia'
p165
F75.48
sS'Ascension'
p166
F79.36
sS'Sri_Lanka'
p167
F76.56
sS'Taiwan'
p168
F79.98
sS'Cyprus'
p169
F78.51
sS'Barbados'
p170
F75.18
sS'Qatar'
p171
F78.59
sS'Virgin_Islands'
p172
F79.89
sS'Italy'
p173
F82.12
sS'Curacao'
p174
F77.98
sS'USA'
p175
F79.68
sS'Sudan'
p176
F63.68
sS'Nepal'
p177
F67.52
sS'Bosnia_and_Herzegovina'
p178
F76.55
sS'Malta'
p179
F80.25
sS'Burundi'
p180
F60.09
sS'British_Virgin_Islands'
p181
F78.46
sS'Maldives'
p182
F75.37
sS'Saint_Helena'
p183
F79.36
sS'Suriname'
p184
F71.97
sS'Lesotho'
p185
F52.86
sS'Anguilla'
p186
F81.31
sS'Venezuela'
p187
F74.54
sS'South_Korea'
p188
F80.04
sS'Sao_Tome_and_Principe'
p189
F64.58
sS'Israel'
p190
F82.27
sS'Hong_Kong'
p191
F82.86
sS'Iceland'
p192
F82.97
sS'Zambia'
p193
F52.15
sS'Senegal'
p194
F61.32
sS'Trinidad_and_Tobago'
p195
F72.59
sS'Zimbabwe'
p196
F57.05
sS'Germany'
p197
F80.57
sS'Gambia'
p198
F64.6
sS'French_Polynesia'
p199
F76.98
sS'Kazakhstan'
p200
F70.55
sS'Philippines'
p201
F68.96
sS'American_Samoa'
p202
F75.14
sS'Eritrea'
p203
F63.81
sS'Kyrgyzstan'
p204
F70.36
sS'Montserrat'
p205
F74.14
sS'New_Zealand'
p206
F81.05
sS'Macedonia'
p207
F76.02
sS'Paraguay'
p208
F76.99
sS'Latvia'
p209
F74.23
sS'Hungary'
p210
F75.69
sS'Syria'
p211
F74.69
sS'Gaza_Strip'
p212
F74.87
sS'Honduras'
p213
F71.0
sS'Myanmar'
p214
F66.29
sS'Mexico'
p215
F75.65
sS'Tunisia'
p216
F75.89
sS'Cuba'
p217
F78.39
sS'Serbia'
p218
F75.26
sS'Botswana'
p219
F54.18
sS'Papua_New_Guinea'
p220
F67.03
sS'Congo'
p221
F58.79
sS'Greece'
p222
F80.43
sS'Fiji'
p223
F72.43
sS'Costa_Rica'
p224
F78.4
sS'Comoros'
p225
F63.85
sS'Cayman_Islands'
p226
F81.13
s.