(dp0
S'Australia'
p1
F2.83
sS'Canada'
p2
F2.54
sS'Turkmenistan'
p3
F5.43
sS'Lithuania'
p4
F2.1
sS'Cambodia'
p5
F8.04
sS'Ethiopia'
p6
F18.15
sS'Swaziland'
p7
F3.67
sS'Saudi_Arabia'
p8
F4.0
sS'Argentina'
p9
F12.58
sS'Bolivia'
p10
F10.04
sS'Cameroon'
p11
F18.56
sS'Ghana'
p12
F12.49
sS'Saint_Lucia'
p13
F10.13
sS'Saint_Kitts_and_Nevis'
p14
F11.55
sS'Antigua_and_Barbuda'
p15
F12.32
sS'Slovenia'
p16
F2.1
sS'Guatemala'
p17
F3.51
sS'Kuwait'
p18
F3.89
sS'Germany'
p19
F2.1
sS'Dominica'
p20
F11.2
sS'Liberia'
p21
F10.12
sS'Netherlands'
p22
F2.1
sS'Pakistan'
p23
F13.62
sS'Oman'
p24
F3.2
sS'Tanzania'
p25
F12.98
sS'Cabo_Verde'
p26
F15.13
sS'Gabon'
p27
F18.48
sS'Luxembourg'
p28
F2.1
sS'United_Kingdom'
p29
F2.1
sS'Yemen'
p30
F5.24
sS'Jamaica'
p31
F8.37
sS'Albania'
p32
F1.25
sS'Samoa'
p33
F11.68
sS'India'
p34
F9.74
sS'Azerbaijan'
p35
F8.52
sS'Lesotho'
p36
F3.12
sS'Kenya'
p37
F11.77
sS'Tajikistan'
p38
F4.94
sS'Turkey'
p39
F2.4
sS'Afghanistan'
p40
F6.47
sS'Russian_Federation'
p41
F6.84
sS'Bangladesh'
p42
F13.82
sS'Mauritania'
p43
F13.27
sS'Saint_Vincent_and_the_Grenadines'
p44
F10.96
sS'Hungary'
p45
F2.1
sS'Cyprus'
p46
F2.1
sS'Mongolia'
p47
F4.94
sS'France'
p48
F2.1
sS'Rwanda'
p49
F10.93
sS'Slovakia'
p50
F2.1
sS'Peru'
p51
F2.8
sS'Vanuatu'
p52
F12.03
sS'Norway'
p53
F0.71
sS'Czech_Republic'
p54
F2.1
sS'Benin'
p55
F12.96
sS'Solomon_Islands'
p56
F9.18
sS'Cuba'
p57
F10.27
sS'South_Africa'
p58
F6.25
sS'Montenegro'
p59
F2.41
sS'Togo'
p60
F12.87
sS'Brunei_Darussalam'
p61
F1.2
sS'China'
p62
F7.57
sS'Armenia'
p63
F4.6
sS'Syrian_Arab_Republic'
p64
F15.16
sS'Timor-Leste'
p65
F2.5
sS'Burkina_Faso'
p66
F12.25
sS'Ukraine'
p67
F4.29
sS'Bahrain'
p68
F3.86
sS'Tonga'
p69
F11.08
sS'Finland'
p70
F2.1
sS'Libya'
p71
F0.0
sS'Indonesia'
p72
F5.03
sS'Mauritius'
p73
F1.43
sS'Sweden'
p74
F2.1
sS'Vietnam'
p75
F6.63
sS'Equatorial_Guinea'
p76
F18.65
sS'Mali'
p77
F12.29
sS'Bulgaria'
p78
F2.1
sS'Central_African_Republic'
p79
F17.43
sS'Romania'
p80
F2.1
sS'Angola'
p81
F10.87
sS'Chad'
p82
F17.41
sS'Nicaragua'
p83
F3.85
sS'Qatar'
p84
F3.84
sS'Malaysia'
p85
F5.28
sS'Senegal'
p86
F13.18
sS'Mozambique'
p87
F7.45
sS'El_Salvador'
p88
F4.0
sS'Uganda'
p89
F11.94
sS'Japan'
p90
F2.42
sS'Niger'
p91
F13.17
sS'Brazil'
p92
F13.74
sS'Dominican_Republic'
p93
F8.39
sS'Guinea'
p94
F13.52
sS'Panama'
p95
F6.93
sS'Morocco'
p96
F4.32
sS'Bahamas'
p97
F30.36
sS'Ireland'
p98
F2.1
sS'Dem._Rep._Congo'
p99
F11.65
sS'Italy'
p100
F2.1
sS'Nigeria'
p101
F11.76
sS'Ecuador'
p102
F7.61
sS'Belarus'
p103
F6.29
sS'Iran'
p104
F20.92
sS'USA'
p105
F2.73
sS'Algeria'
p106
F12.24
sS'Tuvalu'
p107
F8.5
sS'United_Arab_Emirates'
p108
F4.01
sS'Chile'
p109
F2.71
sS'Belgium'
p110
F2.1
sS'Thailand'
p111
F8.15
sS'Haiti'
p112
F6.21
sS'Belize'
p113
F11.13
sS'Georgia'
p114
F1.25
sS'Gambia'
p115
F15.58
sS'Philippines'
p116
F4.84
sS'Moldova'
p117
F4.6
sS'Namibia'
p118
F6.53
sS'Guinea-Bissau'
p119
F13.39
sS'Switzerland'
p120
F0.0
sS'Grenada'
p121
F10.99
sS"Cote_d'Ivoire"
p122
F12.91
sS'Seychelles'
p123
F6.5
sS'Sierra_Leone'
p124
F12.88
sS'Portugal'
p125
F2.1
sS'Estonia'
p126
F2.1
sS'Uruguay'
p127
F9.81
sS'Lebanon'
p128
F4.31
sS'Uzbekistan'
p129
F11.71
sS'Egypt'
p130
F7.83
sS'Djibouti'
p131
F18.92
sS'Spain'
p132
F2.1
sS'Colombia'
p133
F5.15
sS'Burundi'
p134
F9.91
sS'Sri_Lanka'
p135
F7.82
sS'Fiji'
p136
F11.77
sS'Barbados'
p137
F12.05
sS'Madagascar'
p138
F10.69
sS'Palau'
p139
F2.9
sS'Papua_New_Guinea'
p140
F4.66
sS'Bhutan'
p141
F11.1
sS'Sudan'
p142
F13.3
sS'Nepal'
p143
F12.26
sS'Bosnia_and_Herzegovina'
p144
F2.79
sS'Malta'
p145
F2.1
sS'Suriname'
p146
F12.01
sS'Venezuela'
p147
F11.03
sS'South_Korea'
p148
F5.19
sS'Israel'
p149
F1.44
sS'Hong_Kong'
p150
F0.0
sS'Iceland'
p151
F1.55
sS'Zambia'
p152
F10.3
sS'Austria'
p153
F2.1
sS'Malawi'
p154
F6.98
sS'Trinidad_and_Tobago'
p155
F8.18
sS'Zimbabwe'
p156
F15.08
sS'Jordan'
p157
F5.95
sS'Denmark'
p158
F2.1
sS'Kazakhstan'
p159
F6.45
sS'Poland'
p160
F2.1
sS'Eritrea'
p161
F9.56
sS'Kyrgyzstan'
p162
F3.26
sS'New_Zealand'
p163
F2.18
sS'Macedonia'
p164
F3.49
sS'Macao'
p165
F0.0
sS'Latvia'
p166
F2.1
sS'Guyana'
p167
F9.74
sS'Honduras'
p168
F6.55
sS'Myanmar'
p169
F3.93
sS'Mexico'
p170
F7.73
sS'Tunisia'
p171
F21.79
sS'Singapore'
p172
F0.0
sS'Serbia'
p173
F8.09
sS'Botswana'
p174
F6.84
sS'Lao_PDR'
p175
F4.46
sS'Congo'
p176
F18.57
sS'Greece'
p177
F2.1
sS'Paraguay'
p178
F8.14
sS'Croatia'
p179
F1.86
sS'Costa_Rica'
p180
F4.28
sS'Comoros'
p181
F9.9
s.